target datalayout = "e-m:e-p270:32:32-p271:32:32-p272:64:64-i64:64-i128:128-f80:128-n8:16:32:64-S128"
target triple = "x86_64-pc-linux-gnu"

%struct.PaletteGenContext = type { ptr, i32, i32, i32, ptr, [32768 x %struct.hist_node], ptr, i32, [256 x %struct.range_box], i32, i32, [4 x i8] }
%struct.hist_node = type { ptr, i32 }
%struct.range_box = type { i32, %struct.Lab, i32, i64, i64, i32, i32, i32 }
%struct.Lab = type { i32, i32, i32 }
%struct.color_ref = type { i32, %struct.Lab, i64 }

; Function Attrs: nounwind uwtable
define internal i32 @sort3id(i64 noundef %0, i64 noundef %1, i64 noundef %2) #0 {
  %4 = alloca i32, align 4
  %5 = alloca i64, align 8
  %6 = alloca i64, align 8
  %7 = alloca i64, align 8
  store i64 %0, ptr %5, align 8, !tbaa !84
  store i64 %1, ptr %6, align 8, !tbaa !84
  store i64 %2, ptr %7, align 8, !tbaa !84
  %8 = load i64, ptr %5, align 8, !tbaa !84
  %9 = load i64, ptr %6, align 8, !tbaa !84
  %10 = icmp sge i64 %8, %9
  br i1 %10, label %11, label %22

11:                                               ; preds = %3
  %12 = load i64, ptr %6, align 8, !tbaa !84
  %13 = load i64, ptr %7, align 8, !tbaa !84
  %14 = icmp sge i64 %12, %13
  br i1 %14, label %15, label %16

15:                                               ; preds = %11
  store i32 0, ptr %4, align 4
  br label %33

16:                                               ; preds = %11
  %17 = load i64, ptr %5, align 8, !tbaa !84
  %18 = load i64, ptr %7, align 8, !tbaa !84
  %19 = icmp sge i64 %17, %18
  br i1 %19, label %20, label %21

20:                                               ; preds = %16
  store i32 1, ptr %4, align 4
  br label %33

21:                                               ; preds = %16
  store i32 2, ptr %4, align 4
  br label %33

22:                                               ; preds = %3
  %23 = load i64, ptr %5, align 8, !tbaa !84
  %24 = load i64, ptr %7, align 8, !tbaa !84
  %25 = icmp sge i64 %23, %24
  br i1 %25, label %26, label %27

26:                                               ; preds = %22
  store i32 3, ptr %4, align 4
  br label %33

27:                                               ; preds = %22
  %28 = load i64, ptr %6, align 8, !tbaa !84
  %29 = load i64, ptr %7, align 8, !tbaa !84
  %30 = icmp sge i64 %28, %29
  br i1 %30, label %31, label %32

31:                                               ; preds = %27
  store i32 5, ptr %4, align 4
  br label %33

32:                                               ; preds = %27
  store i32 4, ptr %4, align 4
  br label %33

33:                                               ; preds = %32, %31, %26, %21, %20, %15
  %34 = load i32, ptr %4, align 4
  ret i32 %34
}

; Function Attrs: nounwind uwtable
define internal void @compute_box_stats(ptr noundef %0, ptr noundef %1) #0 {
  %3 = alloca ptr, align 8
  %4 = alloca ptr, align 8
  %5 = alloca [3 x i64], align 16
  %6 = alloca i64, align 8
  %7 = alloca i64, align 8
  %8 = alloca i64, align 8
  %9 = alloca i32, align 4
  %10 = alloca ptr, align 8
  %11 = alloca i32, align 4
  %12 = alloca ptr, align 8
  %13 = alloca i64, align 8
  %14 = alloca i64, align 8
  %15 = alloca i64, align 8
  store ptr %0, ptr %3, align 8, !tbaa !22
  store ptr %1, ptr %4, align 8, !tbaa !74
  call void @llvm.lifetime.start.p0(i64 24, ptr %5) #10
  call void @llvm.memset.p0.i64(ptr align 16 %5, i8 0, i64 24, i1 false)
  call void @llvm.lifetime.start.p0(i64 8, ptr %6) #10
  store i64 0, ptr %6, align 8, !tbaa !84
  call void @llvm.lifetime.start.p0(i64 8, ptr %7) #10
  store i64 0, ptr %7, align 8, !tbaa !84
  call void @llvm.lifetime.start.p0(i64 8, ptr %8) #10
  store i64 0, ptr %8, align 8, !tbaa !84
  %16 = load ptr, ptr %4, align 8, !tbaa !74
  %17 = getelementptr inbounds nuw %struct.range_box, ptr %16, i32 0, i32 3
  store i64 0, ptr %17, align 8, !tbaa !83
  call void @llvm.lifetime.start.p0(i64 4, ptr %9) #10
  %18 = load ptr, ptr %4, align 8, !tbaa !74
  %19 = getelementptr inbounds nuw %struct.range_box, ptr %18, i32 0, i32 5
  %20 = load i32, ptr %19, align 8, !tbaa !82
  store i32 %20, ptr %9, align 4, !tbaa !29
  br label %21

21:                                               ; preds = %80, %2
  %22 = load i32, ptr %9, align 4, !tbaa !29
  %23 = load ptr, ptr %4, align 8, !tbaa !74
  %24 = getelementptr inbounds nuw %struct.range_box, ptr %23, i32 0, i32 5
  %25 = load i32, ptr %24, align 8, !tbaa !82
  %26 = load ptr, ptr %4, align 8, !tbaa !74
  %27 = getelementptr inbounds nuw %struct.range_box, ptr %26, i32 0, i32 6
  %28 = load i32, ptr %27, align 4, !tbaa !76
  %29 = add nsw i32 %25, %28
  %30 = icmp slt i32 %22, %29
  br i1 %30, label %32, label %31

31:                                               ; preds = %21
  call void @llvm.lifetime.end.p0(i64 4, ptr %9) #10
  br label %83

32:                                               ; preds = %21
  call void @llvm.lifetime.start.p0(i64 8, ptr %10) #10
  %33 = load ptr, ptr %3, align 8, !tbaa !22
  %34 = getelementptr inbounds nuw %struct.PaletteGenContext, ptr %33, i32 0, i32 6
  %35 = load ptr, ptr %34, align 8, !tbaa !71
  %36 = load i32, ptr %9, align 4, !tbaa !29
  %37 = sext i32 %36 to i64
  %38 = getelementptr inbounds ptr, ptr %35, i64 %37
  %39 = load ptr, ptr %38, align 8, !tbaa !85
  store ptr %39, ptr %10, align 8, !tbaa !85
  %40 = load ptr, ptr %10, align 8, !tbaa !85
  %41 = getelementptr inbounds nuw %struct.color_ref, ptr %40, i32 0, i32 1
  %42 = getelementptr inbounds nuw %struct.Lab, ptr %41, i32 0, i32 0
  %43 = load i32, ptr %42, align 4, !tbaa !104
  %44 = sext i32 %43 to i64
  %45 = load ptr, ptr %10, align 8, !tbaa !85
  %46 = getelementptr inbounds nuw %struct.color_ref, ptr %45, i32 0, i32 2
  %47 = load i64, ptr %46, align 8, !tbaa !87
  %48 = mul nsw i64 %44, %47
  %49 = load i64, ptr %6, align 8, !tbaa !84
  %50 = add nsw i64 %49, %48
  store i64 %50, ptr %6, align 8, !tbaa !84
  %51 = load ptr, ptr %10, align 8, !tbaa !85
  %52 = getelementptr inbounds nuw %struct.color_ref, ptr %51, i32 0, i32 1
  %53 = getelementptr inbounds nuw %struct.Lab, ptr %52, i32 0, i32 1
  %54 = load i32, ptr %53, align 4, !tbaa !105
  %55 = sext i32 %54 to i64
  %56 = load ptr, ptr %10, align 8, !tbaa !85
  %57 = getelementptr inbounds nuw %struct.color_ref, ptr %56, i32 0, i32 2
  %58 = load i64, ptr %57, align 8, !tbaa !87
  %59 = mul nsw i64 %55, %58
  %60 = load i64, ptr %7, align 8, !tbaa !84
  %61 = add nsw i64 %60, %59
  store i64 %61, ptr %7, align 8, !tbaa !84
  %62 = load ptr, ptr %10, align 8, !tbaa !85
  %63 = getelementptr inbounds nuw %struct.color_ref, ptr %62, i32 0, i32 1
  %64 = getelementptr inbounds nuw %struct.Lab, ptr %63, i32 0, i32 2
  %65 = load i32, ptr %64, align 4, !tbaa !106
  %66 = sext i32 %65 to i64
  %67 = load ptr, ptr %10, align 8, !tbaa !85
  %68 = getelementptr inbounds nuw %struct.color_ref, ptr %67, i32 0, i32 2
  %69 = load i64, ptr %68, align 8, !tbaa !87
  %70 = mul nsw i64 %66, %69
  %71 = load i64, ptr %8, align 8, !tbaa !84
  %72 = add nsw i64 %71, %70
  store i64 %72, ptr %8, align 8, !tbaa !84
  %73 = load ptr, ptr %10, align 8, !tbaa !85
  %74 = getelementptr inbounds nuw %struct.color_ref, ptr %73, i32 0, i32 2
  %75 = load i64, ptr %74, align 8, !tbaa !87
  %76 = load ptr, ptr %4, align 8, !tbaa !74
  %77 = getelementptr inbounds nuw %struct.range_box, ptr %76, i32 0, i32 3
  %78 = load i64, ptr %77, align 8, !tbaa !83
  %79 = add nsw i64 %78, %75
  store i64 %79, ptr %77, align 8, !tbaa !83
  call void @llvm.lifetime.end.p0(i64 8, ptr %10) #10
  br label %80

80:                                               ; preds = %32
  %81 = load i32, ptr %9, align 4, !tbaa !29
  %82 = add nsw i32 %81, 1
  store i32 %82, ptr %9, align 4, !tbaa !29
  br label %21, !llvm.loop !107

83:                                               ; preds = %31
  %84 = load i64, ptr %6, align 8, !tbaa !84
  %85 = load ptr, ptr %4, align 8, !tbaa !74
  %86 = getelementptr inbounds nuw %struct.range_box, ptr %85, i32 0, i32 3
  %87 = load i64, ptr %86, align 8, !tbaa !83
  %88 = sdiv i64 %84, %87
  %89 = trunc i64 %88 to i32
  %90 = load ptr, ptr %4, align 8, !tbaa !74
  %91 = getelementptr inbounds nuw %struct.range_box, ptr %90, i32 0, i32 1
  %92 = getelementptr inbounds nuw %struct.Lab, ptr %91, i32 0, i32 0
  store i32 %89, ptr %92, align 4, !tbaa !108
  %93 = load i64, ptr %7, align 8, !tbaa !84
  %94 = load ptr, ptr %4, align 8, !tbaa !74
  %95 = getelementptr inbounds nuw %struct.range_box, ptr %94, i32 0, i32 3
  %96 = load i64, ptr %95, align 8, !tbaa !83
  %97 = sdiv i64 %93, %96
  %98 = trunc i64 %97 to i32
  %99 = load ptr, ptr %4, align 8, !tbaa !74
  %100 = getelementptr inbounds nuw %struct.range_box, ptr %99, i32 0, i32 1
  %101 = getelementptr inbounds nuw %struct.Lab, ptr %100, i32 0, i32 1
  store i32 %98, ptr %101, align 4, !tbaa !109
  %102 = load i64, ptr %8, align 8, !tbaa !84
  %103 = load ptr, ptr %4, align 8, !tbaa !74
  %104 = getelementptr inbounds nuw %struct.range_box, ptr %103, i32 0, i32 3
  %105 = load i64, ptr %104, align 8, !tbaa !83
  %106 = sdiv i64 %102, %105
  %107 = trunc i64 %106 to i32
  %108 = load ptr, ptr %4, align 8, !tbaa !74
  %109 = getelementptr inbounds nuw %struct.range_box, ptr %108, i32 0, i32 1
  %110 = getelementptr inbounds nuw %struct.Lab, ptr %109, i32 0, i32 2
  store i32 %107, ptr %110, align 4, !tbaa !110
  call void @llvm.lifetime.start.p0(i64 4, ptr %11) #10
  %111 = load ptr, ptr %4, align 8, !tbaa !74
  %112 = getelementptr inbounds nuw %struct.range_box, ptr %111, i32 0, i32 5
  %113 = load i32, ptr %112, align 8, !tbaa !82
  store i32 %113, ptr %11, align 4, !tbaa !29
  br label %114

114:                                              ; preds = %193, %83
  %115 = load i32, ptr %11, align 4, !tbaa !29
  %116 = load ptr, ptr %4, align 8, !tbaa !74
  %117 = getelementptr inbounds nuw %struct.range_box, ptr %116, i32 0, i32 5
  %118 = load i32, ptr %117, align 8, !tbaa !82
  %119 = load ptr, ptr %4, align 8, !tbaa !74
  %120 = getelementptr inbounds nuw %struct.range_box, ptr %119, i32 0, i32 6
  %121 = load i32, ptr %120, align 4, !tbaa !76
  %122 = add nsw i32 %118, %121
  %123 = icmp slt i32 %115, %122
  br i1 %123, label %125, label %124

124:                                              ; preds = %114
  call void @llvm.lifetime.end.p0(i64 4, ptr %11) #10
  br label %196

125:                                              ; preds = %114
  call void @llvm.lifetime.start.p0(i64 8, ptr %12) #10
  %126 = load ptr, ptr %3, align 8, !tbaa !22
  %127 = getelementptr inbounds nuw %struct.PaletteGenContext, ptr %126, i32 0, i32 6
  %128 = load ptr, ptr %127, align 8, !tbaa !71
  %129 = load i32, ptr %11, align 4, !tbaa !29
  %130 = sext i32 %129 to i64
  %131 = getelementptr inbounds ptr, ptr %128, i64 %130
  %132 = load ptr, ptr %131, align 8, !tbaa !85
  store ptr %132, ptr %12, align 8, !tbaa !85
  call void @llvm.lifetime.start.p0(i64 8, ptr %13) #10
  %133 = load ptr, ptr %12, align 8, !tbaa !85
  %134 = getelementptr inbounds nuw %struct.color_ref, ptr %133, i32 0, i32 1
  %135 = getelementptr inbounds nuw %struct.Lab, ptr %134, i32 0, i32 0
  %136 = load i32, ptr %135, align 4, !tbaa !104
  %137 = load ptr, ptr %4, align 8, !tbaa !74
  %138 = getelementptr inbounds nuw %struct.range_box, ptr %137, i32 0, i32 1
  %139 = getelementptr inbounds nuw %struct.Lab, ptr %138, i32 0, i32 0
  %140 = load i32, ptr %139, align 4, !tbaa !108
  %141 = sub nsw i32 %136, %140
  %142 = sext i32 %141 to i64
  store i64 %142, ptr %13, align 8, !tbaa !84
  call void @llvm.lifetime.start.p0(i64 8, ptr %14) #10
  %143 = load ptr, ptr %12, align 8, !tbaa !85
  %144 = getelementptr inbounds nuw %struct.color_ref, ptr %143, i32 0, i32 1
  %145 = getelementptr inbounds nuw %struct.Lab, ptr %144, i32 0, i32 1
  %146 = load i32, ptr %145, align 4, !tbaa !105
  %147 = load ptr, ptr %4, align 8, !tbaa !74
  %148 = getelementptr inbounds nuw %struct.range_box, ptr %147, i32 0, i32 1
  %149 = getelementptr inbounds nuw %struct.Lab, ptr %148, i32 0, i32 1
  %150 = load i32, ptr %149, align 4, !tbaa !109
  %151 = sub nsw i32 %146, %150
  %152 = sext i32 %151 to i64
  store i64 %152, ptr %14, align 8, !tbaa !84
  call void @llvm.lifetime.start.p0(i64 8, ptr %15) #10
  %153 = load ptr, ptr %12, align 8, !tbaa !85
  %154 = getelementptr inbounds nuw %struct.color_ref, ptr %153, i32 0, i32 1
  %155 = getelementptr inbounds nuw %struct.Lab, ptr %154, i32 0, i32 2
  %156 = load i32, ptr %155, align 4, !tbaa !106
  %157 = load ptr, ptr %4, align 8, !tbaa !74
  %158 = getelementptr inbounds nuw %struct.range_box, ptr %157, i32 0, i32 1
  %159 = getelementptr inbounds nuw %struct.Lab, ptr %158, i32 0, i32 2
  %160 = load i32, ptr %159, align 4, !tbaa !110
  %161 = sub nsw i32 %156, %160
  %162 = sext i32 %161 to i64
  store i64 %162, ptr %15, align 8, !tbaa !84
  %163 = load i64, ptr %13, align 8, !tbaa !84
  %164 = load i64, ptr %13, align 8, !tbaa !84
  %165 = mul nsw i64 %163, %164
  %166 = load ptr, ptr %12, align 8, !tbaa !85
  %167 = getelementptr inbounds nuw %struct.color_ref, ptr %166, i32 0, i32 2
  %168 = load i64, ptr %167, align 8, !tbaa !87
  %169 = mul nsw i64 %165, %168
  %170 = getelementptr inbounds [3 x i64], ptr %5, i64 0, i64 0
  %171 = load i64, ptr %170, align 16, !tbaa !84
  %172 = add nsw i64 %171, %169
  store i64 %172, ptr %170, align 16, !tbaa !84
  %173 = load i64, ptr %14, align 8, !tbaa !84
  %174 = load i64, ptr %14, align 8, !tbaa !84
  %175 = mul nsw i64 %173, %174
  %176 = load ptr, ptr %12, align 8, !tbaa !85
  %177 = getelementptr inbounds nuw %struct.color_ref, ptr %176, i32 0, i32 2
  %178 = load i64, ptr %177, align 8, !tbaa !87
  %179 = mul nsw i64 %175, %178
  %180 = getelementptr inbounds [3 x i64], ptr %5, i64 0, i64 1
  %181 = load i64, ptr %180, align 8, !tbaa !84
  %182 = add nsw i64 %181, %179
  store i64 %182, ptr %180, align 8, !tbaa !84
  %183 = load i64, ptr %15, align 8, !tbaa !84
  %184 = load i64, ptr %15, align 8, !tbaa !84
  %185 = mul nsw i64 %183, %184
  %186 = load ptr, ptr %12, align 8, !tbaa !85
  %187 = getelementptr inbounds nuw %struct.color_ref, ptr %186, i32 0, i32 2
  %188 = load i64, ptr %187, align 8, !tbaa !87
  %189 = mul nsw i64 %185, %188
  %190 = getelementptr inbounds [3 x i64], ptr %5, i64 0, i64 2
  %191 = load i64, ptr %190, align 16, !tbaa !84
  %192 = add nsw i64 %191, %189
  store i64 %192, ptr %190, align 16, !tbaa !84
  call void @llvm.lifetime.end.p0(i64 8, ptr %15) #10
  call void @llvm.lifetime.end.p0(i64 8, ptr %14) #10
  call void @llvm.lifetime.end.p0(i64 8, ptr %13) #10
  call void @llvm.lifetime.end.p0(i64 8, ptr %12) #10
  br label %193

193:                                              ; preds = %125
  %194 = load i32, ptr %11, align 4, !tbaa !29
  %195 = add nsw i32 %194, 1
  store i32 %195, ptr %11, align 4, !tbaa !29
  br label %114, !llvm.loop !111

196:                                              ; preds = %124
  %197 = getelementptr inbounds [3 x i64], ptr %5, i64 0, i64 0
  %198 = load i64, ptr %197, align 16, !tbaa !84
  %199 = getelementptr inbounds [3 x i64], ptr %5, i64 0, i64 1
  %200 = load i64, ptr %199, align 8, !tbaa !84
  %201 = getelementptr inbounds [3 x i64], ptr %5, i64 0, i64 2
  %202 = load i64, ptr %201, align 16, !tbaa !84
  %203 = call i32 @sort3id(i64 noundef %198, i64 noundef %200, i64 noundef %202)
  %204 = load ptr, ptr %4, align 8, !tbaa !74
  %205 = getelementptr inbounds nuw %struct.range_box, ptr %204, i32 0, i32 2
  store i32 %203, ptr %205, align 8, !tbaa !80
  %206 = getelementptr inbounds [3 x i64], ptr %5, i64 0, i64 0
  %207 = load i64, ptr %206, align 16, !tbaa !84
  %208 = getelementptr inbounds [3 x i64], ptr %5, i64 0, i64 1
  %209 = load i64, ptr %208, align 8, !tbaa !84
  %210 = icmp sgt i64 %207, %209
  br i1 %210, label %211, label %214

211:                                              ; preds = %196
  %212 = getelementptr inbounds [3 x i64], ptr %5, i64 0, i64 0
  %213 = load i64, ptr %212, align 16, !tbaa !84
  br label %217

214:                                              ; preds = %196
  %215 = getelementptr inbounds [3 x i64], ptr %5, i64 0, i64 1
  %216 = load i64, ptr %215, align 8, !tbaa !84
  br label %217

217:                                              ; preds = %214, %211
  %218 = phi i64 [ %213, %211 ], [ %216, %214 ]
  %219 = getelementptr inbounds [3 x i64], ptr %5, i64 0, i64 2
  %220 = load i64, ptr %219, align 16, !tbaa !84
  %221 = icmp sgt i64 %218, %220
  br i1 %221, label %222, label %236

222:                                              ; preds = %217
  %223 = getelementptr inbounds [3 x i64], ptr %5, i64 0, i64 0
  %224 = load i64, ptr %223, align 16, !tbaa !84
  %225 = getelementptr inbounds [3 x i64], ptr %5, i64 0, i64 1
  %226 = load i64, ptr %225, align 8, !tbaa !84
  %227 = icmp sgt i64 %224, %226
  br i1 %227, label %228, label %231

228:                                              ; preds = %222
  %229 = getelementptr inbounds [3 x i64], ptr %5, i64 0, i64 0
  %230 = load i64, ptr %229, align 16, !tbaa !84
  br label %234

231:                                              ; preds = %222
  %232 = getelementptr inbounds [3 x i64], ptr %5, i64 0, i64 1
  %233 = load i64, ptr %232, align 8, !tbaa !84
  br label %234

234:                                              ; preds = %231, %228
  %235 = phi i64 [ %230, %228 ], [ %233, %231 ]
  br label %239

236:                                              ; preds = %217
  %237 = getelementptr inbounds [3 x i64], ptr %5, i64 0, i64 2
  %238 = load i64, ptr %237, align 16, !tbaa !84
  br label %239

239:                                              ; preds = %236, %234
  %240 = phi i64 [ %235, %234 ], [ %238, %236 ]
  %241 = load ptr, ptr %4, align 8, !tbaa !74
  %242 = getelementptr inbounds nuw %struct.range_box, ptr %241, i32 0, i32 4
  store i64 %240, ptr %242, align 8, !tbaa !112
  call void @llvm.lifetime.end.p0(i64 8, ptr %8) #10
  call void @llvm.lifetime.end.p0(i64 8, ptr %7) #10
  call void @llvm.lifetime.end.p0(i64 8, ptr %6) #10
  call void @llvm.lifetime.end.p0(i64 24, ptr %5) #10
  ret void
}