; Function Attrs: nofree norecurse nosync nounwind memory(read, argmem: readwrite, inaccessiblemem: none) uwtable
define internal fastcc void @compute_box_stats(ptr noundef readonly captures(none) %0, ptr noundef captures(none) initializes((24, 32)) %1) unnamed_addr #5 {
  %3 = getelementptr inbounds nuw i8, ptr %1, i64 24
  store i64 0, ptr %3, align 8, !tbaa !84
  %4 = getelementptr inbounds nuw i8, ptr %1, i64 40
  %5 = load i32, ptr %4, align 8, !tbaa !83
  %6 = getelementptr inbounds nuw i8, ptr %1, i64 44
  %7 = load i32, ptr %6, align 4, !tbaa !77
  %8 = add nsw i32 %7, %5
  %9 = icmp sgt i32 %7, 0
  br i1 %9, label %.lr.ph, label %sort3id.exit

.lr.ph:                                           ; preds = %2
  %10 = getelementptr inbounds nuw i8, ptr %0, i64 524320
  %11 = load ptr, ptr %10, align 8, !tbaa !71
  %12 = sext i32 %5 to i64
  %13 = sext i32 %8 to i64
  br label %27

.lr.ph92:                                         ; preds = %27
  store i64 %48, ptr %3, align 8, !tbaa !84
  %14 = sdiv i64 %37, %48
  %15 = trunc i64 %14 to i32
  %16 = getelementptr inbounds nuw i8, ptr %1, i64 4
  store i32 %15, ptr %16, align 4, !tbaa !93
  %17 = sdiv i64 %42, %48
  %18 = trunc i64 %17 to i32
  %19 = getelementptr inbounds nuw i8, ptr %1, i64 8
  store i32 %18, ptr %19, align 4, !tbaa !94
  %20 = sdiv i64 %47, %48
  %21 = trunc i64 %20 to i32
  %22 = getelementptr inbounds nuw i8, ptr %1, i64 12
  store i32 %21, ptr %22, align 4, !tbaa !95
  %23 = getelementptr inbounds nuw i8, ptr %0, i64 524320
  %24 = load ptr, ptr %23, align 8, !tbaa !71
  %25 = sext i32 %5 to i64
  %26 = sext i32 %8 to i64
  br label %57

27:                                               ; preds = %.lr.ph, %27
  %indvars.iv = phi i64 [ %12, %.lr.ph ], [ %indvars.iv.next, %27 ]
  %28 = phi i64 [ 0, %.lr.ph ], [ %48, %27 ]
  %.082 = phi i64 [ 0, %.lr.ph ], [ %37, %27 ]
  %.07581 = phi i64 [ 0, %.lr.ph ], [ %42, %27 ]
  %.07779 = phi i64 [ 0, %.lr.ph ], [ %47, %27 ]
  %29 = getelementptr inbounds ptr, ptr %11, i64 %indvars.iv
  %30 = load ptr, ptr %29, align 8, !tbaa !73
  %31 = getelementptr inbounds nuw i8, ptr %30, i64 4
  %32 = load i32, ptr %31, align 4, !tbaa !96
  %33 = sext i32 %32 to i64
  %34 = getelementptr inbounds nuw i8, ptr %30, i64 16
  %35 = load i64, ptr %34, align 8, !tbaa !58
  %36 = mul nsw i64 %35, %33
  %37 = add nsw i64 %36, %.082
  %38 = getelementptr inbounds nuw i8, ptr %30, i64 8
  %39 = load i32, ptr %38, align 4, !tbaa !97
  %40 = sext i32 %39 to i64
  %41 = mul nsw i64 %35, %40
  %42 = add nsw i64 %41, %.07581
  %43 = getelementptr inbounds nuw i8, ptr %30, i64 12
  %44 = load i32, ptr %43, align 4, !tbaa !98
  %45 = sext i32 %44 to i64
  %46 = mul nsw i64 %35, %45
  %47 = add nsw i64 %46, %.07779
  %48 = add nsw i64 %28, %35
  %indvars.iv.next = add nsw i64 %indvars.iv, 1
  %49 = icmp slt i64 %indvars.iv.next, %13
  br i1 %49, label %27, label %.lr.ph92, !llvm.loop !99

._crit_edge93:                                    ; preds = %57
  %.not.i = icmp slt i64 %76, %79
  br i1 %.not.i, label %52, label %50

50:                                               ; preds = %._crit_edge93
  %.not18.i = icmp slt i64 %79, %82
  br i1 %.not18.i, label %51, label %sort3id.exit

51:                                               ; preds = %50
  %.not19.i = icmp slt i64 %76, %82
  %..i = select i1 %.not19.i, i32 2, i32 1
  br label %sort3id.exit

52:                                               ; preds = %._crit_edge93
  %.not16.i = icmp slt i64 %76, %82
  br i1 %.not16.i, label %53, label %sort3id.exit

53:                                               ; preds = %52
  %.not17.i = icmp slt i64 %79, %82
  %.20.i = select i1 %.not17.i, i32 4, i32 5
  br label %sort3id.exit

sort3id.exit:                                     ; preds = %2, %50, %51, %52, %53
  %.sroa.0.0.lcssa119 = phi i64 [ %76, %50 ], [ %76, %51 ], [ %76, %52 ], [ %76, %53 ], [ 0, %2 ]
  %.sroa.10.0.lcssa117 = phi i64 [ %79, %50 ], [ %79, %51 ], [ %79, %52 ], [ %79, %53 ], [ 0, %2 ]
  %.sroa.17.0.lcssa114 = phi i64 [ %82, %50 ], [ %82, %51 ], [ %82, %52 ], [ %82, %53 ], [ 0, %2 ]
  %.0.i = phi i32 [ 0, %50 ], [ %..i, %51 ], [ 3, %52 ], [ %.20.i, %53 ], [ 0, %2 ]
  %54 = getelementptr inbounds nuw i8, ptr %1, i64 16
  store i32 %.0.i, ptr %54, align 8, !tbaa !81
  %55 = tail call i64 @llvm.smax.i64(i64 %.sroa.0.0.lcssa119, i64 %.sroa.10.0.lcssa117)
  %..sroa.17.0 = tail call i64 @llvm.smax.i64(i64 %55, i64 %.sroa.17.0.lcssa114)
  %56 = getelementptr inbounds nuw i8, ptr %1, i64 32
  store i64 %..sroa.17.0, ptr %56, align 8, !tbaa !86
  ret void

57:                                               ; preds = %.lr.ph92, %57
  %indvars.iv104 = phi i64 [ %25, %.lr.ph92 ], [ %indvars.iv.next105, %57 ]
  %.sroa.0.090 = phi i64 [ 0, %.lr.ph92 ], [ %76, %57 ]
  %.sroa.10.089 = phi i64 [ 0, %.lr.ph92 ], [ %79, %57 ]
  %.sroa.17.088 = phi i64 [ 0, %.lr.ph92 ], [ %82, %57 ]
  %58 = getelementptr inbounds ptr, ptr %24, i64 %indvars.iv104
  %59 = load ptr, ptr %58, align 8, !tbaa !73
  %60 = getelementptr inbounds nuw i8, ptr %59, i64 4
  %61 = load i32, ptr %60, align 4, !tbaa !96
  %62 = sub nsw i32 %61, %15
  %63 = sext i32 %62 to i64
  %64 = getelementptr inbounds nuw i8, ptr %59, i64 8
  %65 = load i32, ptr %64, align 4, !tbaa !97
  %66 = sub nsw i32 %65, %18
  %67 = sext i32 %66 to i64
  %68 = getelementptr inbounds nuw i8, ptr %59, i64 12
  %69 = load i32, ptr %68, align 4, !tbaa !98
  %70 = sub nsw i32 %69, %21
  %71 = sext i32 %70 to i64
  %72 = mul nsw i64 %63, %63
  %73 = getelementptr inbounds nuw i8, ptr %59, i64 16
  %74 = load i64, ptr %73, align 8, !tbaa !58
  %75 = mul nsw i64 %72, %74
  %76 = add nsw i64 %75, %.sroa.0.090
  %77 = mul nsw i64 %67, %67
  %78 = mul nsw i64 %77, %74
  %79 = add nsw i64 %78, %.sroa.10.089
  %80 = mul i64 %74, %71
  %81 = mul i64 %80, %71
  %82 = add nsw i64 %81, %.sroa.17.088
  %indvars.iv.next105 = add nsw i64 %indvars.iv104, 1
  %83 = icmp slt i64 %indvars.iv.next105, %26
  br i1 %83, label %57, label %._crit_edge93, !llvm.loop !100
}